; Function Attrs: mustprogress nofree norecurse nosync nounwind willreturn memory(argmem: readwrite) uwtable
define hidden void @_ZN6Assimp3IFC16AssignMatrixAxesER12aiMatrix4x4tIdERK10aiVector3tIdES7_S7_(ptr noundef nonnull writeonly align 8 captures(none) dereferenceable(128) initializes((0, 24), (32, 56), (64, 88)) %0, ptr noundef nonnull readonly align 8 captures(none) dereferenceable(24) %1, ptr noundef nonnull readonly align 8 captures(none) dereferenceable(24) %2, ptr noundef nonnull readonly align 8 captures(none) dereferenceable(24) %3) local_unnamed_addr #5 {
  %5 = load double, ptr %1, align 8
  store double %5, ptr %0, align 8
  %6 = getelementptr inbounds nuw i8, ptr %1, i64 8
  %7 = load double, ptr %6, align 8
  %8 = getelementptr inbounds nuw i8, ptr %0, i64 32
  store double %7, ptr %8, align 8
  %9 = getelementptr inbounds nuw i8, ptr %1, i64 16
  %10 = load double, ptr %9, align 8
  %11 = getelementptr inbounds nuw i8, ptr %0, i64 64
  store double %10, ptr %11, align 8
  %12 = load double, ptr %2, align 8
  %13 = getelementptr inbounds nuw i8, ptr %0, i64 8
  store double %12, ptr %13, align 8
  %14 = getelementptr inbounds nuw i8, ptr %2, i64 8
  %15 = load double, ptr %14, align 8
  %16 = getelementptr inbounds nuw i8, ptr %0, i64 40
  store double %15, ptr %16, align 8
  %17 = getelementptr inbounds nuw i8, ptr %2, i64 16
  %18 = load double, ptr %17, align 8
  %19 = getelementptr inbounds nuw i8, ptr %0, i64 72
  store double %18, ptr %19, align 8
  %20 = load double, ptr %3, align 8
  %21 = getelementptr inbounds nuw i8, ptr %0, i64 16
  store double %20, ptr %21, align 8
  %22 = getelementptr inbounds nuw i8, ptr %3, i64 8
  %23 = load double, ptr %22, align 8
  %24 = getelementptr inbounds nuw i8, ptr %0, i64 48
  store double %23, ptr %24, align 8
  %25 = getelementptr inbounds nuw i8, ptr %3, i64 16
  %26 = load double, ptr %25, align 8
  %27 = getelementptr inbounds nuw i8, ptr %0, i64 80
  store double %26, ptr %27, align 8
  ret void
}